(lp0
(lp1
(dp2
S'distance'
p3
I2
sS'direction'
p4
S'U'
p5
sS'answer_index'
p6
I0
sS'anchor'
p7
I2
sS'iti'
p8
I4
sa(dp9
g3
I2
sg4
S'D'
p10
sg6
I0
sg7
I6
sg8
I6
sa(dp11
g3
I2
sg4
g10
sg6
I2
sg7
I2
sg8
I5
sa(dp12
g3
I3
sg4
g10
sg6
I0
sg7
I4
sg8
I4
sa(dp13
g3
I4
sg4
g5
sg6
I1
sg7
I6
sg8
I6
sa(dp14
g3
I2
sg4
g10
sg6
I1
sg7
I3
sg8
I4
sa(dp15
g3
I3
sg4
g5
sg6
I3
sg7
I3
sg8
I6
sa(dp16
g3
I2
sg4
g5
sg6
I0
sg7
I5
sg8
I5
sa(dp17
g3
I2
sg4
g5
sg6
I2
sg7
I6
sg8
I7
sa(dp18
g3
I2
sg4
g5
sg6
I1
sg7
I4
sg8
I5
sa(dp19
g3
I3
sg4
g10
sg6
I0
sg7
I3
sg8
I4
sa(dp20
g3
I4
sg4
g5
sg6
I3
sg7
I5
sg8
I5
sa(dp21
g3
I4
sg4
g10
sg6
I1
sg7
I2
sg8
I7
sa(dp22
g3
I2
sg4
g10
sg6
I3
sg7
I5
sg8
I7
sa(dp23
g3
I3
sg4
g10
sg6
I2
sg7
I5
sg8
I8
sa(dp24
g3
I4
sg4
g10
sg6
I2
sg7
I3
sg8
I7
sa(dp25
g3
I2
sg4
g5
sg6
I3
sg7
I3
sg8
I6
sa(dp26
g3
I3
sg4
g5
sg6
I1
sg7
I4
sg8
I7
sa(dp27
g3
I3
sg4
g5
sg6
I0
sg7
I6
sg8
I6
sa(dp28
g3
I2
sg4
g10
sg6
I3
sg7
I4
sg8
I7
sa(dp29
g3
I4
sg4
g5
sg6
I2
sg7
I4
sg8
I5
sa(dp30
g3
I4
sg4
g10
sg6
I3
sg7
I4
sg8
I4
sa(dp31
g3
I3
sg4
g10
sg6
I1
sg7
I2
sg8
I6
sa(dp32
g3
I3
sg4
g5
sg6
I2
sg7
I5
sg8
I4
saa(lp33
(dp34
g3
I3
sg4
g5
sg6
I1
sg7
I4
sg8
I4
sa(dp35
g3
I2
sg4
g10
sg6
I3
sg7
I5
sg8
I4
sa(dp36
g3
I4
sg4
g5
sg6
I0
sg7
I4
sg8
I6
sa(dp37
g3
I3
sg4
g10
sg6
I1
sg7
I2
sg8
I6
sa(dp38
g3
I2
sg4
g10
sg6
I0
sg7
I4
sg8
I7
sa(dp39
g3
I2
sg4
g10
sg6
I0
sg7
I3
sg8
I5
sa(dp40
g3
I4
sg4
g5
sg6
I2
sg7
I5
sg8
I7
sa(dp41
g3
I2
sg4
g5
sg6
I3
sg7
I2
sg8
I7
sa(dp42
g3
I4
sg4
g10
sg6
I0
sg7
I4
sg8
I6
sa(dp43
g3
I2
sg4
g5
sg6
I0
sg7
I5
sg8
I6
sa(dp44
g3
I2
sg4
g5
sg6
I3
sg7
I3
sg8
I8
sa(dp45
g3
I3
sg4
g5
sg6
I0
sg7
I6
sg8
I8
sa(dp46
g3
I2
sg4
g5
sg6
I3
sg7
I6
sg8
I5
sa(dp47
g3
I4
sg4
g10
sg6
I3
sg7
I2
sg8
I8
sa(dp48
g3
I2
sg4
g10
sg6
I3
sg7
I6
sg8
I6
sa(dp49
g3
I2
sg4
g10
sg6
I1
sg7
I2
sg8
I6
sa(dp50
g3
I3
sg4
g10
sg6
I2
sg7
I4
sg8
I5
sa(dp51
g3
I4
sg4
g5
sg6
I1
sg7
I6
sg8
I4
sa(dp52
g3
I3
sg4
g10
sg6
I2
sg7
I5
sg8
I4
sa(dp53
g3
I3
sg4
g5
sg6
I2
sg7
I5
sg8
I4
sa(dp54
g3
I2
sg4
g5
sg6
I2
sg7
I4
sg8
I7
sa(dp55
g3
I3
sg4
g10
sg6
I2
sg7
I3
sg8
I4
sa(dp56
g3
I4
sg4
g10
sg6
I1
sg7
I3
sg8
I4
sa(dp57
g3
I3
sg4
g5
sg6
I1
sg7
I3
sg8
I4
saa(lp58
(dp59
g3
I2
sg4
g5
sg6
I2
sg7
I6
sg8
I4
sa(dp60
g3
I3
sg4
g5
sg6
I1
sg7
I3
sg8
I4
sa(dp61
g3
I3
sg4
g10
sg6
I2
sg7
I5
sg8
I7
sa(dp62
g3
I4
sg4
g10
sg6
I2
sg7
I3
sg8
I6
sa(dp63
g3
I3
sg4
g5
sg6
I2
sg7
I5
sg8
I6
sa(dp64
g3
I3
sg4
g10
sg6
I1
sg7
I4
sg8
I5
sa(dp65
g3
I2
sg4
g5
sg6
I2
sg7
I4
sg8
I6
sa(dp66
g3
I2
sg4
g10
sg6
I0
sg7
I3
sg8
I6
sa(dp67
g3
I3
sg4
g10
sg6
I0
sg7
I3
sg8
I7
sa(dp68
g3
I3
sg4
g5
sg6
I0
sg7
I4
sg8
I4
sa(dp69
g3
I4
sg4
g10
sg6
I3
sg7
I4
sg8
I4
sa(dp70
g3
I4
sg4
g5
sg6
I0
sg7
I4
sg8
I5
sa(dp71
g3
I3
sg4
g10
sg6
I1
sg7
I2
sg8
I8
sa(dp72
g3
I4
sg4
g5
sg6
I3
sg7
I5
sg8
I6
sa(dp73
g3
I4
sg4
g10
sg6
I0
sg7
I2
sg8
I5
sa(dp74
g3
I2
sg4
g5
sg6
I1
sg7
I2
sg8
I7
sa(dp75
g3
I3
sg4
g5
sg6
I1
sg7
I6
sg8
I4
sa(dp76
g3
I2
sg4
g10
sg6
I1
sg7
I4
sg8
I7
sa(dp77
g3
I2
sg4
g10
sg6
I3
sg7
I6
sg8
I5
sa(dp78
g3
I4
sg4
g5
sg6
I3
sg7
I6
sg8
I4
sa(dp79
g3
I2
sg4
g10
sg6
I3
sg7
I2
sg8
I7
sa(dp80
g3
I2
sg4
g10
sg6
I2
sg7
I5
sg8
I6
sa(dp81
g3
I2
sg4
g5
sg6
I3
sg7
I5
sg8
I8
sa(dp82
g3
I2
sg4
g5
sg6
I0
sg7
I3
sg8
I4
saa(lp83
(dp84
g3
I3
sg4
g5
sg6
I1
sg7
I6
sg8
I4
sa(dp85
g3
I2
sg4
g10
sg6
I0
sg7
I6
sg8
I4
sa(dp86
g3
I2
sg4
g10
sg6
I3
sg7
I2
sg8
I7
sa(dp87
g3
I4
sg4
g5
sg6
I0
sg7
I4
sg8
I5
sa(dp88
g3
I3
sg4
g10
sg6
I1
sg7
I4
sg8
I5
sa(dp89
g3
I4
sg4
g10
sg6
I1
sg7
I2
sg8
I7
sa(dp90
g3
I2
sg4
g5
sg6
I3
sg7
I6
sg8
I4
sa(dp91
g3
I3
sg4
g10
sg6
I1
sg7
I3
sg8
I6
sa(dp92
g3
I2
sg4
g5
sg6
I1
sg7
I4
sg8
I8
sa(dp93
g3
I4
sg4
g5
sg6
I0
sg7
I6
sg8
I4
sa(dp94
g3
I2
sg4
g10
sg6
I2
sg7
I4
sg8
I7
sa(dp95
g3
I4
sg4
g10
sg6
I0
sg7
I3
sg8
I5
sa(dp96
g3
I3
sg4
g5
sg6
I2
sg7
I3
sg8
I8
sa(dp97
g3
I2
sg4
g10
sg6
I2
sg7
I3
sg8
I5
sa(dp98
g3
I2
sg4
g10
sg6
I0
sg7
I5
sg8
I7
sa(dp99
g3
I2
sg4
g5
sg6
I1
sg7
I3
sg8
I7
sa(dp100
g3
I3
sg4
g10
sg6
I3
sg7
I2
sg8
I5
sa(dp101
g3
I2
sg4
g5
sg6
I0
sg7
I5
sg8
I7
sa(dp102
g3
I4
sg4
g5
sg6
I3
sg7
I5
sg8
I6
sa(dp103
g3
I4
sg4
g10
sg6
I2
sg7
I4
sg8
I6
sa(dp104
g3
I2
sg4
g5
sg6
I3
sg7
I2
sg8
I7
sa(dp105
g3
I3
sg4
g5
sg6
I2
sg7
I4
sg8
I5
sa(dp106
g3
I3
sg4
g10
sg6
I3
sg7
I5
sg8
I4
sa(dp107
g3
I3
sg4
g5
sg6
I2
sg7
I5
sg8
I4
saa(lp108
(dp109
g3
I2
sg4
g5
sg6
I3
sg7
I6
sg8
I5
sa(dp110
g3
I3
sg4
g10
sg6
I1
sg7
I2
sg8
I8
sa(dp111
g3
I2
sg4
g10
sg6
I3
sg7
I6
sg8
I7
sa(dp112
g3
I3
sg4
g10
sg6
I2
sg7
I3
sg8
I4
sa(dp113
g3
I3
sg4
g5
sg6
I1
sg7
I5
sg8
I6
sa(dp114
g3
I2
sg4
g5
sg6
I2
sg7
I3
sg8
I6
sa(dp115
g3
I4
sg4
g5
sg6
I0
sg7
I6
sg8
I4
sa(dp116
g3
I4
sg4
g10
sg6
I0
sg7
I4
sg8
I6
sa(dp117
g3
I3
sg4
g5
sg6
I1
sg7
I6
sg8
I4
sa(dp118
g3
I3
sg4
g10
sg6
I3
sg7
I4
sg8
I4
sa(dp119
g3
I2
sg4
g5
sg6
I3
sg7
I5
sg8
I7
sa(dp120
g3
I3
sg4
g10
sg6
I3
sg7
I5
sg8
I5
sa(dp121
g3
I2
sg4
g10
sg6
I0
sg7
I3
sg8
I4
sa(dp122
g3
I4
sg4
g10
sg6
I2
sg7
I3
sg8
I8
sa(dp123
g3
I3
sg4
g5
sg6
I0
sg7
I4
sg8
I7
sa(dp124
g3
I4
sg4
g5
sg6
I0
sg7
I5
sg8
I8
sa(dp125
g3
I2
sg4
g5
sg6
I1
sg7
I2
sg8
I4
sa(dp126
g3
I2
sg4
g10
sg6
I2
sg7
I5
sg8
I4
sa(dp127
g3
I4
sg4
g5
sg6
I2
sg7
I4
sg8
I6
sa(dp128
g3
I2
sg4
g5
sg6
I3
sg7
I4
sg8
I5
sa(dp129
g3
I4
sg4
g10
sg6
I1
sg7
I2
sg8
I7
sa(dp130
g3
I2
sg4
g10
sg6
I1
sg7
I2
sg8
I7
sa(dp131
g3
I2
sg4
g10
sg6
I0
sg7
I4
sg8
I5
sa(dp132
g3
I3
sg4
g5
sg6
I2
sg7
I3
sg8
I4
saa(lp133
(dp134
g3
I2
sg4
g10
sg6
I0
sg7
I5
sg8
I4
sa(dp135
g3
I4
sg4
g5
sg6
I3
sg7
I4
sg8
I4
sa(dp136
g3
I3
sg4
g10
sg6
I1
sg7
I4
sg8
I5
sa(dp137
g3
I2
sg4
g5
sg6
I1
sg7
I3
sg8
I4
sa(dp138
g3
I3
sg4
g5
sg6
I2
sg7
I5
sg8
I5
sa(dp139
g3
I3
sg4
g5
sg6
I1
sg7
I4
sg8
I5
sa(dp140
g3
I2
sg4
g10
sg6
I3
sg7
I2
sg8
I7
sa(dp141
g3
I4
sg4
g10
sg6
I0
sg7
I3
sg8
I8
sa(dp142
g3
I2
sg4
g10
sg6
I0
sg7
I4
sg8
I5
sa(dp143
g3
I2
sg4
g5
sg6
I1
sg7
I4
sg8
I5
sa(dp144
g3
I2
sg4
g10
sg6
I3
sg7
I3
sg8
I7
sa(dp145
g3
I2
sg4
g10
sg6
I2
sg7
I6
sg8
I4
sa(dp146
g3
I4
sg4
g10
sg6
I3
sg7
I2
sg8
I5
sa(dp147
g3
I2
sg4
g5
sg6
I2
sg7
I5
sg8
I8
sa(dp148
g3
I4
sg4
g5
sg6
I0
sg7
I6
sg8
I6
sa(dp149
g3
I2
sg4
g5
sg6
I3
sg7
I2
sg8
I8
sa(dp150
g3
I4
sg4
g10
sg6
I2
sg7
I4
sg8
I5
sa(dp151
g3
I2
sg4
g5
sg6
I3
sg7
I6
sg8
I7
sa(dp152
g3
I3
sg4
g5
sg6
I0
sg7
I6
sg8
I6
sa(dp153
g3
I3
sg4
g10
sg6
I1
sg7
I3
sg8
I5
sa(dp154
g3
I3
sg4
g5
sg6
I0
sg7
I3
sg8
I6
sa(dp155
g3
I3
sg4
g10
sg6
I2
sg7
I2
sg8
I8
sa(dp156
g3
I3
sg4
g10
sg6
I1
sg7
I5
sg8
I4
sa(dp157
g3
I4
sg4
g5
sg6
I2
sg7
I5
sg8
I4
saa.(lp0
(dp1
S'distance'
p2
I1
sS'direction'
p3
S'D'
p4
sS'answer_index'
p5
I1
sS'anchor'
p6
I0
sS'iti'
p7
I4
sa(dp8
g2
I2
sg3
g4
sg5
I3
sg6
I0
sg7
I5
sa(dp9
g2
I3
sg3
g4
sg5
I1
sg6
I0
sg7
I6
sa(dp10
g2
I4
sg3
g4
sg5
I2
sg6
I0
sg7
I4
sa(dp11
g2
I5
sg3
g4
sg5
I0
sg6
I0
sg7
I4
sa(dp12
g2
I6
sg3
g4
sg5
I2
sg6
I0
sg7
I7
sa(dp13
g2
I7
sg3
g4
sg5
I3
sg6
I0
sg7
I4
sa(dp14
g2
I8
sg3
g4
sg5
I2
sg6
I0
sg7
I6
sa(dp15
g2
I1
sg3
g4
sg5
I1
sg6
I1
sg7
I5
sag15
a(dp16
g2
I2
sg3
g4
sg5
I1
sg6
I1
sg7
I7
sa(dp17
g2
I3
sg3
g4
sg5
I3
sg6
I1
sg7
I7
sa(dp18
g2
I4
sg3
g4
sg5
I0
sg6
I1
sg7
I4
sa(dp19
g2
I5
sg3
g4
sg5
I2
sg6
I1
sg7
I6
sa(dp20
g2
I6
sg3
g4
sg5
I0
sg6
I1
sg7
I4
sa(dp21
g2
I7
sg3
g4
sg5
I2
sg6
I1
sg7
I4
sa(dp22
g2
I1
sg3
g4
sg5
I2
sg6
I2
sg7
I5
sag22
a(dp23
g2
I5
sg3
g4
sg5
I0
sg6
I2
sg7
I4
sa(dp24
g2
I6
sg3
g4
sg5
I1
sg6
I2
sg7
I7
sa(dp25
g2
I1
sg3
g4
sg5
I2
sg6
I3
sg7
I6
sag25
a(dp26
g2
I5
sg3
g4
sg5
I0
sg6
I3
sg7
I6
sa(dp27
g2
I1
sg3
g4
sg5
I0
sg6
I4
sg7
I6
sag27
a(dp28
g2
I1
sg3
g4
sg5
I0
sg6
I5
sg7
I7
sag28
a(dp29
g2
I5
sg3
S'U'
p30
sg5
I0
sg6
I5
sg7
I6
sa(dp31
g2
I1
sg3
g4
sg5
I3
sg6
I6
sg7
I4
sag31
a(dp32
g2
I5
sg3
g30
sg5
I1
sg6
I6
sg7
I6
sa(dp33
g2
I6
sg3
g30
sg5
I0
sg6
I6
sg7
I5
sa(dp34
g2
I1
sg3
g4
sg5
I0
sg6
I7
sg7
I6
sag34
a(dp35
g2
I2
sg3
g30
sg5
I0
sg6
I7
sg7
I7
sa(dp36
g2
I3
sg3
g30
sg5
I0
sg6
I7
sg7
I5
sa(dp37
g2
I4
sg3
g30
sg5
I3
sg6
I7
sg7
I4
sa(dp38
g2
I5
sg3
g30
sg5
I2
sg6
I7
sg7
I6
sa(dp39
g2
I6
sg3
g30
sg5
I3
sg6
I7
sg7
I7
sa(dp40
g2
I7
sg3
g30
sg5
I0
sg6
I7
sg7
I6
sa(dp41
g2
I1
sg3
g30
sg5
I1
sg6
I8
sg7
I4
sa(dp42
g2
I2
sg3
g30
sg5
I0
sg6
I8
sg7
I5
sa(dp43
g2
I3
sg3
g30
sg5
I3
sg6
I8
sg7
I6
sa(dp44
g2
I4
sg3
g30
sg5
I0
sg6
I8
sg7
I5
sa(dp45
g2
I5
sg3
g30
sg5
I2
sg6
I8
sg7
I5
sa(dp46
g2
I6
sg3
g30
sg5
I1
sg6
I8
sg7
I5
sa(dp47
g2
I7
sg3
g30
sg5
I1
sg6
I8
sg7
I5
sa(dp48
g2
I8
sg3
g30
sg5
I0
sg6
I8
sg7
I6
sa.